; Function Attrs: nounwind uwtable
define internal fastcc range(i32 -27648, 1) i32 @ssl_tls13_write_server_pre_shared_key_ext(ptr noundef %0, ptr noundef %1, ptr noundef %2, ptr noundef nonnull writeonly captures(none) initializes((0, 8)) %3) unnamed_addr #0 {
  store i64 0, ptr %3, align 8, !tbaa !39
  %5 = getelementptr inbounds nuw i8, ptr %0, i64 112
  %6 = load ptr, ptr %5, align 8, !tbaa !16
  %7 = getelementptr inbounds nuw i8, ptr %6, i64 1680
  %8 = load ptr, ptr %7, align 8, !tbaa !130
  %9 = icmp eq ptr %8, null
  br i1 %9, label %32, label %10

10:                                               ; preds = %4
  tail call void (ptr, i32, ptr, i32, ptr, ...) @mbedtls_debug_print_msg(ptr noundef nonnull %0, i32 noundef 3, ptr noundef nonnull @.str, i32 noundef 754, ptr noundef nonnull @.str.103) #9
  %11 = icmp ule ptr %1, %2
  %12 = ptrtoint ptr %2 to i64
  %13 = ptrtoint ptr %1 to i64
  %14 = sub i64 %12, %13
  %15 = icmp ugt i64 %14, 5
  %narrow.i.not = and i1 %11, %15
  br i1 %narrow.i.not, label %16, label %32

16:                                               ; preds = %10
  store i16 10496, ptr %1, align 1
  %17 = getelementptr inbounds nuw i8, ptr %1, i64 2
  store i16 512, ptr %17, align 1
  %18 = getelementptr inbounds nuw i8, ptr %1, i64 4
  %19 = load ptr, ptr %5, align 8, !tbaa !16
  %20 = getelementptr inbounds nuw i8, ptr %19, i64 1696
  %21 = load i16, ptr %20, align 8, !tbaa !122
  %22 = tail call i16 @llvm.bswap.i16(i16 %21)
  store i16 %22, ptr %18, align 1
  store i64 6, ptr %3, align 8, !tbaa !39
  %23 = load ptr, ptr %5, align 8, !tbaa !16
  %24 = getelementptr inbounds nuw i8, ptr %23, i64 1696
  %25 = load i16, ptr %24, align 8, !tbaa !122
  %26 = zext i16 %25 to i32
  tail call void (ptr, i32, ptr, i32, ptr, ...) @mbedtls_debug_print_msg(ptr noundef nonnull %0, i32 noundef 4, ptr noundef nonnull @.str, i32 noundef 765, ptr noundef nonnull @.str.104, i32 noundef %26) #9
  %27 = tail call i32 @mbedtls_ssl_get_extension_mask(i32 noundef 41) #9
  %28 = load ptr, ptr %5, align 8, !tbaa !16
  %29 = getelementptr inbounds nuw i8, ptr %28, i64 3272
  %30 = load i32, ptr %29, align 8, !tbaa !77
  %31 = or i32 %30, %27
  store i32 %31, ptr %29, align 8, !tbaa !77
  br label %32

32:                                               ; preds = %10, %4, %16
  %.0 = phi i32 [ 0, %16 ], [ -27648, %4 ], [ -27136, %10 ]
  ret i32 %.0
}